((S'Nombre'
p0
S'Area'
p1
S'Inicio'
p2
S'Fin'
p3
S'Enfoque'
p4
S'Carpeta'
p5
S'Colonia'
p6
S'diasSemana'
p7
tp8
(S'Calzado'
p9
S'ninez'
p10
cdatetime
date
p11
(S'\x07\xd0\x06\x01'
p12
tp13
Rp14
g11
(S'\x07\xd0\x01\x01'
p15
tp16
Rp17
S'asdf '
p18
S''
p19
S'Loma Bonita'
p20
L21L
tp21
(S'Clarinete'
p22
S'ninez'
p23
g11
(S'\x07\xd0\x01\x01'
p24
tp25
Rp26
g11
(S'\x07\xd0\x01\x01'
p27
tp28
Rp29
S'dddddddd'
p30
g19
S'Loma Bonita'
p31
L2L
tp32
(S'Colores'
p33
S'ninez'
p34
g11
(S'\x07\xd0\x01\x01'
p35
tp36
Rp37
g11
(S'\x07\xd0\x01\x01'
p38
tp39
Rp40
S'asdfasdfasdf '
p41
g19
S'Loma Bonita'
p42
L3L
tp43
(S'Computacion2'
p44
S'ninez'
p45
g11
(S'\x07\xd1\x0c\x1e'
p46
tp47
Rp48
g11
(S'\x07\xd2\x0c\x1e'
p49
tp50
Rp51
S'0000000000000'
p52
g19
S'Miramar'
p53
L4L
tp54
(S'Curso Lideres'
p55
S'ninez'
p56
g11
(S'\x07\xd0\x01\x01'
p57
tp58
Rp59
g11
(S'\x07\xd0\x06\x01'
p60
tp61
Rp62
S'asdfdfsf sdf sf sdf'
p63
g19
S'Loma Bonita'
p64
L5L
tp65
(S'Educaci\xf3n F\xedsica'
p66
S'ninez'
p67
g11
(S'\x07\xd0\x01\x01'
p68
tp69
Rp70
g11
(S'\x07\xd0\x01\x01'
p71
tp72
Rp73
S'dfdsddddddd'
p74
g19
S'Loma Bonita'
p75
L6L
tp76
(S'Final'
p77
S'ninez'
p78
g11
(S'\x07\xd0\x01\x01'
p79
tp80
Rp81
g11
(S'\x07\xd0\x01\x01'
p82
tp83
Rp84
S'222222222222222'
p85
g19
S'Loma Bonita'
p86
L8L
tp87
(S'Guitarra'
p88
S'ninez'
p89
g11
(S'\x07\xd0\x01\x01'
p90
tp91
Rp92
g11
(S'\x07\xd0\x01\x01'
p93
tp94
Rp95
S'asdfasdf'
p96
g19
S'Loma Bonita'
p97
L9L
tp98
(S'Negocios'
p99
S'ninez'
p100
g11
(S'\x07\xd0\x01\x01'
p101
tp102
Rp103
g11
(S'\x07\xd0\x01\x01'
p104
tp105
Rp106
S'asdf'
p107
g19
S'Loma Bonita'
p108
L11L
tp109
(S'Ortograf\xeda'
p110
S'ninez'
p111
g11
(S'\x07\xd0\x01\x01'
p112
tp113
Rp114
g11
(S'\x07\xd0\x01\x01'
p115
tp116
Rp117
S'2222222222222'
p118
g19
S'Loma Bonita'
p119
L12L
tp120
(S'Piano'
p121
S'ninez'
p122
g11
(S'\x07\xd0\x01\x01'
p123
tp124
Rp125
g11
(S'\x07\xd0\x01\x01'
p126
tp127
Rp128
S'asdf'
p129
g19
S'Loma Bonita'
p130
L13L
tp131
(S'Pintura'
p132
S'ninez'
p133
g11
(S'\x07\xd0\x01\x01'
p134
tp135
Rp136
g11
(S'\x07\xd0\x01\x01'
p137
tp138
Rp139
S'00000000000'
p140
g19
S'Loma Bonita'
p141
L14L
tp142
(S'Pintura II'
p143
S'ninez'
p144
g11
(S'\x07\xd0\x01\x01'
p145
tp146
Rp147
g11
(S'\x07\xd0\x01\x01'
p148
tp149
Rp150
S'2222222222222222'
p151
g19
S'Loma Bonita'
p152
L15L
tp153
(S'Plastilina'
p154
S'ninez'
p155
g11
(S'\x07\xd0\x01\x01'
p156
tp157
Rp158
g11
(S'\x07\xd0\x01\x01'
p159
tp160
Rp161
S'zzzzzzzzzz'
p162
g19
S'Loma Bonita'
p163
L16L
tp164
(S'Redaccion'
p165
S'ninez'
p166
g11
(S'\x07\xd0\x01\x01'
p167
tp168
Rp169
g11
(S'\x07\xd0\x01\x01'
p170
tp171
Rp172
S'1111111'
p173
g19
S'Loma Bonita'
p174
L17L
tp175
(S'Saxofon'
p176
S'ninez'
p177
g11
(S'\x07\xd0\x01\x01'
p178
tp179
Rp180
g11
(S'\x07\xd0\x01\x01'
p181
tp182
Rp183
S'luke'
p184
g19
S'Loma Bonita'
p185
L18L
tp186
(S'Taller De Lectura'
p187
S'ninez'
p188
g11
(S'\x07\xde\x02\x1c'
p189
tp190
Rp191
g11
(S'\x07\xde\x03\x1c'
p192
tp193
Rp194
S'luke123'
p195
g19
S'Loma Bonita'
p196
L19L
tp197
(S'Telefonia'
p198
S'ninez'
p199
g11
(S'\x07\xd0\x01\x01'
p200
tp201
Rp202
g11
(S'\x07\xd0\x01\x01'
p203
tp204
Rp205
S'asdf '
p206
g19
S'Loma Bonita'
p207
L22L
tp208
(S'Violin'
p209
S'ninez'
p210
g11
(S'\x07\xd0\x01\x01'
p211
tp212
Rp213
g11
(S'\x07\xd0\x03\x01'
p214
tp215
Rp216
S'ddddddddddddd'
p217
g19
S'Loma Bonita'
p218
L20L
tp219
(S'Herbolaria'
p220
S'adultoss'
p221
g11
(S'\x07\xd0\x01\x01'
p222
tp223
Rp224
g11
(S'\x07\xd0\x01\x01'
p225
tp226
Rp227
S'11111111'
p228
g19
S'Loma Bonita'
p229
L10L
tp230
(S'Baile'
p231
S'procuracionFondos'
p232
g11
(S'\x07\xd0\x01\x01'
p233
tp234
Rp235
g11
(S'\x07\xd0\x01\x01'
p236
tp237
Rp238
S'11111111'
p239
g19
S'Loma Bonita'
p240
L1L
tp241
(S'Electr\xf3nica'
p242
S'procuracionFondos'
p243
g11
(S'\x07\xd0\x01\x01'
p244
tp245
Rp246
g11
(S'\x07\xd0\x01\x01'
p247
tp248
Rp249
S'11111'
p250
g19
S'Loma Bonita'
p251
L7L
tp252
tp253
.