((S'Nombre'
p0
S'Apellido Paterno'
p1
S'Apellido Materno'
p2
S'Genero'
p3
S'Fecha de Nacimiento'
p4
S'Edad'
p5
S'Domicilio'
p6
S'Colonia'
p7
S'Codigo Postal'
p8
S'Nivel'
p9
S'Graado'
p10
S'Telefono'
p11
S'Celular'
p12
S'Email'
p13
S'Estatus'
p14
S'Carpeta'
p15
S'Monitoreado'
p16
S'Tipo'
p17
tp18
(S'Alan'
p19
S'Alatriz'
p20
S'Darkar'
p21
S'H'
p22
cdatetime
date
p23
(S'\x07\xd0\x01\x01'
p24
tp25
Rp26
L14L
S'roma 123'
p27
S'Loma Bonita'
p28
L1233L
L1L
S'Licenciatura'
p29
S'12345678'
p30
S'1234567890'
p31
S'dfjf@jdf'
p32
S'\x01'
p33
S''
p34
S'\x00'
p35
S'Estudiante'
p36
tp37
(S'Carolina'
p38
S'Mars'
p39
S'Volta'
p40
S'M'
p41
g23
(S'\x07\xd0\x01\x01'
p42
tp43
Rp44
L14L
S'volta 123'
p45
S'Loma Bonita'
p46
L1223L
L1L
S'Licenciatura'
p47
S'12345678'
p48
S'1234567890'
p49
S'juan@juan'
p50
g33
g34
g35
S'Estudiante'
p51
tp52
(S'Emilio'
p53
S'Perez'
p54
S'Prado'
p55
g22
g23
(S'\x07\xc7\n\n'
p56
tp57
Rp58
L22L
S'Oro 1233'
p59
S'Miramar'
p60
L3223L
L3L
S'Secundaria'
p61
S'23322332'
p62
S'2233223322'
p63
S'jp@jp.com'
p64
g33
g34
g35
S'estudiante'
p65
tp66
(S'Enrique'
p67
S'Suarez'
p68
S'Loopez'
p69
g22
g23
(S'\x07\xd0\x01\x01'
p70
tp71
Rp72
L14L
S'asdf 123'
p73
S'Loma Bonita'
p74
L123213L
L1L
S'Licenciatura'
p75
S'12345678'
p76
S'1234567890'
p77
S'er1'
p78
g33
g34
g35
S'Alumno'
p79
tp80
(S'Eulogio'
p81
S'Parra'
p82
S'Moran'
p83
g22
g23
(S'\x07\xc7\n\n'
p84
tp85
Rp86
L22L
S'Oro 1233'
p87
S'Miramar'
p88
L3223L
L3L
S'Secundaria'
p89
S'23322332'
p90
S'2233223322'
p91
S'jp@jp.com'
p92
g33
g34
g35
S'estudiante'
p93
tp94
(S'Jason'
p95
S'Black'
p96
S'White'
p97
g22
g23
(S'\x07\xd0\x01\x01'
p98
tp99
Rp100
L14L
S'123'
p101
S'Loma Bonita'
p102
L123L
L1L
S'Licenciatura'
p103
S'12345678'
p104
S'1234567890'
p105
S'adsf'
p106
g33
g34
g35
S'Estudiante'
p107
tp108
(S'Josh'
p109
S'Frank'
p110
S'Micky'
p111
g22
g23
(S'\x07\xd0\x01\x01'
p112
tp113
Rp114
L14L
S'asdf'
p115
S'Loma Bonita'
p116
L2134L
L1L
S'Licenciatura'
p117
S'12345678'
p118
S'1234567890'
p119
S'fjfj@jfjf'
p120
g33
g34
g33
S'Alumno'
p121
tp122
(S'juan'
p123
S'enriquez'
p124
S'suarez'
p125
g22
g23
(S'\x07\xd0\x01\x01'
p126
tp127
Rp128
L14L
S'asldfjk 123'
p129
S'Loma Bonita'
p130
L1233L
L1L
S'Licenciatura'
p131
S'12345678'
p132
S'1234567890'
p133
S'mail@mail'
p134
g33
g34
g35
S'Voluntario'
p135
tp136
(S'juan'
p137
S'lopez'
p138
S'camaney'
p139
g22
g23
(S'\x07\xd0\x01\x01'
p140
tp141
Rp142
L14L
S'bloud 123'
p143
S'Emiliano Zapata'
p144
L1234L
L2L
S'Maestr\xeda'
p145
S'12345678'
p146
S'1234567890'
p147
S'jc@jc'
p148
g33
g34
g35
S'Empleado'
p149
tp150
(S'Juan'
p151
S'Mora'
p152
S'Hernandez'
p153
g22
g23
(S'\x07\xc7\n\n'
p154
tp155
Rp156
L22L
S'Oro 1233'
p157
S'Miramar'
p158
L1332L
L1L
S'Secundaria'
p159
S'33223322'
p160
S'222222222'
p161
g34
g33
g34
g35
S'estudiante'
p162
tp163
(S'Karina'
p164
S'Meza'
p165
S'Diaz'
p166
g41
g23
(S'\x07\xd0\x01\x01'
p167
tp168
Rp169
L14L
S'luna 1324'
p170
S'Loma Bonita'
p171
L3341L
L1L
S'Licenciatura'
p172
S'12345678'
p173
S'1234567890'
p174
S'kr@d.com'
p175
g33
g34
g35
S'Voluntario'
p176
tp177
(S'Leticia'
p178
S'Menddz'
p179
S'Lopez'
p180
g41
g23
(S'\x07\xd0\x01\x01'
p181
tp182
Rp183
L14L
S'asf 123'
p184
S'Loma Bonita'
p185
L123L
L1L
S'Licenciatura'
p186
S'12345678'
p187
S'1234567890'
p188
S'adsf'
p189
g33
g34
g35
S'Empleado'
p190
tp191
(S'Manuel'
p192
S'Parra'
p193
S'Moran'
p194
g22
g23
(S'\x07\xc7\n\n'
p195
tp196
Rp197
L22L
S'Oro 1233'
p198
S'Miramar'
p199
L3223L
L3L
S'Secundaria'
p200
S'23322332'
p201
S'2233223322'
p202
S'jp@jp.com'
p203
g33
g34
g35
S'estudiante'
p204
tp205
(S'Manuel'
p206
S'Perez'
p207
S'LLora'
p208
g22
g23
(S'\x07\xd0\x01\x01'
p209
tp210
Rp211
L14L
S'adsf 213'
p212
S'Loma Bonita'
p213
L123L
L1L
S'Licenciatura'
p214
S'12345678'
p215
S'1234567890'
p216
S'm@m.com'
p217
g33
g34
g35
S'Voluntario'
p218
tp219
(S'Marcial'
p220
S'Pereira'
p221
S'Hernandez'
p222
g22
g23
(S'\x07\xd0\x01\x01'
p223
tp224
Rp225
L14L
S'lomas 123'
p226
S'Loma Bonita'
p227
L1233L
L1L
S'Licenciatura'
p228
S'12345678'
p229
S'1234567890'
p230
S'madfs'
p231
g33
g34
g35
S'Estudiante'
p232
tp233
(S'Mar\xeda'
p234
S'Beltran'
p235
S'Sandez'
p236
g41
g23
(S'\x07\xd0\x01\x01'
p23
tp238
Rp239
L14L
S'jf 13212'
p240
S'Loma Bonita'
p241
L123L
L1L
S'Licenciatura'
p242
S'12345678'
p243
S'1234567890'
p244
S'j@j'
p245
g33
g34
g35
S'Voluntario'
p246
tp247
(S'Maria'
p248
S'Mora'
p249
S'Hernandez'
p250
g41
g23
(S'\x07\xc7\n\n'
p251
tp252
Rp253
L22L
S'Oro 1233'
p254
S'Miramar'
p255
L1332L
L1L
S'Secundaria'
p256
S'33223322'
p257
S'222222222'
p258
g34
g33
g34
g35
S'estudiante'
p259
tp260
(S'Mario'
p261
S'Mora'
p262
S'Hernandez'
p263
g22
g23
(S'\x07\xc7\n\n'
p264
tp265
Rp266
L22L
S'Oro 1233'
p267
S'Miramar'
p268
L1332L
L1L
S'Secundaria'
p269
S'33223322'
p270
S'222222222'
p271
g34
g33
g34
g35
S'estudiante'
p272
tp273
(S'Maximiliano'
p274
S'Perez'
p275
S'Prado'
p276
g22
g23
(S'\x07\xc7\n\n'
p277
tp278
Rp279
L22L
S'Oro 1233'
p280
S'Miramar'
p281
L3223L
L3L
S'Secundaria'
p282
S'23322332'
p283
S'2233223322'
p284
S'jp@jp.com'
p285
g33
g34
g35
S'estudiante'
p286
tp287
(S'Melisa'
p288
S'Mora'
p289
S'Hernandez'
p290
g41
g23
(S'\x07\xc7\n\n'
p291
tp292
Rp293
L22L
S'Oro 1233'
p294
S'Miramar'
p295
L1332L
L1L
S'Secundaria'
p296
S'33223322'
p297
S'222222222'
p298
g34
g33
g34
g35
S'estudiante'
p299
tp300
(S'Pedro'
p301
S'Lomeli'
p302
S'Quirarte'
p303
g22
g23
(S'\x07\xd0\x01\x01'
p304
tp305
Rp306
L14L
S'azul 123'
p307
S'Loma Bonita'
p308
L123L
L1L
S'Licenciatura'
p309
S'12345678'
p310
S'1234567890'
p311
S'mail'
p312
g33
g34
g35
S'Estudiante'
p313
tp314
(S'Sofia'
p315
S'Lopez'
p316
S'De la mora'
p317
g41
g23
(S'\x07\xd0\x01\x01'
p318
tp319
Rp320
L14L
S'asdf 123'
p321
S'Loma Bonita'
p322
L123L
L1L
S'Licenciatura'
p323
S'12345678'
p324
S'1234567890'
p325
S'asldfk 12'
p326
g33
g34
g35
S'Empleado'
p327
tp328
tp329
.